target datalayout = "e-m:e-p270:32:32-p271:32:32-p272:64:64-i64:64-i128:128-f80:128-n8:16:32:64-S128"
target triple = "x86_64-pc-linux-gnu"

%struct.Lpk_Fun_t_ = type { ptr, i32, i32, [32 x i32], i32, [16 x i32], [16 x i8], [0 x i32] }
%struct.Abc_Obj_t_ = type { ptr, ptr, i32, i32, %struct.Vec_Int_t_, %struct.Vec_Int_t_, %union.anon, %union.anon.0 }
%struct.Vec_Int_t_ = type { i32, i32, ptr }
%union.anon = type { ptr }
%union.anon.0 = type { ptr }
%struct.Vec_Ptr_t_ = type { i32, i32, ptr }

; Function Attrs: inlinehint nounwind uwtable
define internal void @Vec_PtrGrow(ptr noundef %0, i32 noundef %1) #3 {
  %3 = alloca ptr, align 8
  %4 = alloca i32, align 4
  store ptr %0, ptr %3, align 8, !tbaa !12
  store i32 %1, ptr %4, align 4, !tbaa !3
  %5 = load ptr, ptr %3, align 8, !tbaa !12
  %6 = getelementptr inbounds nuw %struct.Vec_Ptr_t_, ptr %5, i32 0, i32 0
  %7 = load i32, ptr %6, align 8, !tbaa !30
  %8 = load i32, ptr %4, align 4, !tbaa !3
  %9 = icmp sge i32 %7, %8
  br i1 %9, label %10, label %11

10:                                               ; preds = %2
  br label %36

11:                                               ; preds = %2
  %12 = load ptr, ptr %3, align 8, !tbaa !12
  %13 = getelementptr inbounds nuw %struct.Vec_Ptr_t_, ptr %12, i32 0, i32 2
  %14 = load ptr, ptr %13, align 8, !tbaa !28
  %15 = icmp ne ptr %14, null
  br i1 %15, label %16, label %24

16:                                               ; preds = %11
  %17 = load ptr, ptr %3, align 8, !tbaa !12
  %18 = getelementptr inbounds nuw %struct.Vec_Ptr_t_, ptr %17, i32 0, i32 2
  %19 = load ptr, ptr %18, align 8, !tbaa !28
  %20 = load i32, ptr %4, align 4, !tbaa !3
  %21 = sext i32 %20 to i64
  %22 = mul i64 8, %21
  %23 = call ptr @realloc(ptr noundef %19, i64 noundef %22) #11
  br label %29

24:                                               ; preds = %11
  %25 = load i32, ptr %4, align 4, !tbaa !3
  %26 = sext i32 %25 to i64
  %27 = mul i64 8, %26
  %28 = call noalias ptr @malloc(i64 noundef %27) #10
  br label %29

29:                                               ; preds = %24, %16
  %30 = phi ptr [ %23, %16 ], [ %28, %24 ]
  %31 = load ptr, ptr %3, align 8, !tbaa !12
  %32 = getelementptr inbounds nuw %struct.Vec_Ptr_t_, ptr %31, i32 0, i32 2
  store ptr %30, ptr %32, align 8, !tbaa !28
  %33 = load i32, ptr %4, align 4, !tbaa !3
  %34 = load ptr, ptr %3, align 8, !tbaa !12
  %35 = getelementptr inbounds nuw %struct.Vec_Ptr_t_, ptr %34, i32 0, i32 0
  store i32 %33, ptr %35, align 8, !tbaa !30
  br label %36

36:                                               ; preds = %29, %10
  ret void
}

; Function Attrs: inlinehint nounwind uwtable
define internal i32 @Kit_TruthWordNum(i32 noundef %0) #3 {
  %2 = alloca i32, align 4
  store i32 %0, ptr %2, align 4, !tbaa !3
  %3 = load i32, ptr %2, align 4, !tbaa !3
  %4 = icmp sle i32 %3, 5
  br i1 %4, label %5, label %6

5:                                                ; preds = %1
  br label %10

6:                                                ; preds = %1
  %7 = load i32, ptr %2, align 4, !tbaa !3
  %8 = sub nsw i32 %7, 5
  %9 = shl i32 1, %8
  br label %10

10:                                               ; preds = %6, %5
  %11 = phi i32 [ 1, %5 ], [ %9, %6 ]
  ret i32 %11
}

; Function Attrs: inlinehint nounwind uwtable
define internal void @Vec_PtrPush(ptr noundef %0, ptr noundef %1) #3 {
  %3 = alloca ptr, align 8
  %4 = alloca ptr, align 8
  store ptr %0, ptr %3, align 8, !tbaa !12
  store ptr %1, ptr %4, align 8, !tbaa !29
  %5 = load ptr, ptr %3, align 8, !tbaa !12
  %6 = getelementptr inbounds nuw %struct.Vec_Ptr_t_, ptr %5, i32 0, i32 1
  %7 = load i32, ptr %6, align 4, !tbaa !25
  %8 = load ptr, ptr %3, align 8, !tbaa !12
  %9 = getelementptr inbounds nuw %struct.Vec_Ptr_t_, ptr %8, i32 0, i32 0
  %10 = load i32, ptr %9, align 8, !tbaa !30
  %11 = icmp eq i32 %7, %10
  br i1 %11, label %12, label %26

12:                                               ; preds = %2
  %13 = load ptr, ptr %3, align 8, !tbaa !12
  %14 = getelementptr inbounds nuw %struct.Vec_Ptr_t_, ptr %13, i32 0, i32 0
  %15 = load i32, ptr %14, align 8, !tbaa !30
  %16 = icmp slt i32 %15, 16
  br i1 %16, label %17, label %19

17:                                               ; preds = %12
  %18 = load ptr, ptr %3, align 8, !tbaa !12
  call void @Vec_PtrGrow(ptr noundef %18, i32 noundef 16)
  br label %25

19:                                               ; preds = %12
  %20 = load ptr, ptr %3, align 8, !tbaa !12
  %21 = load ptr, ptr %3, align 8, !tbaa !12
  %22 = getelementptr inbounds nuw %struct.Vec_Ptr_t_, ptr %21, i32 0, i32 0
  %23 = load i32, ptr %22, align 8, !tbaa !30
  %24 = mul nsw i32 2, %23
  call void @Vec_PtrGrow(ptr noundef %20, i32 noundef %24)
  br label %25

25:                                               ; preds = %19, %17
  br label %26

26:                                               ; preds = %25, %2
  %27 = load ptr, ptr %4, align 8, !tbaa !29
  %28 = load ptr, ptr %3, align 8, !tbaa !12
  %29 = getelementptr inbounds nuw %struct.Vec_Ptr_t_, ptr %28, i32 0, i32 2
  %30 = load ptr, ptr %29, align 8, !tbaa !28
  %31 = load ptr, ptr %3, align 8, !tbaa !12
  %32 = getelementptr inbounds nuw %struct.Vec_Ptr_t_, ptr %31, i32 0, i32 1
  %33 = load i32, ptr %32, align 4, !tbaa !25
  %34 = add nsw i32 %33, 1
  store i32 %34, ptr %32, align 4, !tbaa !25
  %35 = sext i32 %33 to i64
  %36 = getelementptr inbounds ptr, ptr %30, i64 %35
  store ptr %27, ptr %36, align 8, !tbaa !29
  ret void
}

; Function Attrs: inlinehint nounwind uwtable
define internal ptr @Vec_PtrEntry(ptr noundef %0, i32 noundef %1) #3 {
  %3 = alloca ptr, align 8
  %4 = alloca i32, align 4
  store ptr %0, ptr %3, align 8, !tbaa !12
  store i32 %1, ptr %4, align 4, !tbaa !3
  %5 = load ptr, ptr %3, align 8, !tbaa !12
  %6 = getelementptr inbounds nuw %struct.Vec_Ptr_t_, ptr %5, i32 0, i32 2
  %7 = load ptr, ptr %6, align 8, !tbaa !28
  %8 = load i32, ptr %4, align 4, !tbaa !3
  %9 = sext i32 %8 to i64
  %10 = getelementptr inbounds ptr, ptr %7, i64 %9
  %11 = load ptr, ptr %10, align 8, !tbaa !29
  ret ptr %11
}

; Function Attrs: inlinehint nounwind uwtable
define internal void @Kit_TruthCopy(ptr noundef %0, ptr noundef %1, i32 noundef %2) #3 {
  %4 = alloca ptr, align 8
  %5 = alloca ptr, align 8
  %6 = alloca i32, align 4
  %7 = alloca i32, align 4
  store ptr %0, ptr %4, align 8, !tbaa !14
  store ptr %1, ptr %5, align 8, !tbaa !14
  store i32 %2, ptr %6, align 4, !tbaa !3
  call void @llvm.lifetime.start.p0(i64 4, ptr %7) #9
  %8 = load i32, ptr %6, align 4, !tbaa !3
  %9 = call i32 @Kit_TruthWordNum(i32 noundef %8)
  %10 = sub nsw i32 %9, 1
  store i32 %10, ptr %7, align 4, !tbaa !3
  br label %11

11:                                               ; preds = %24, %3
  %12 = load i32, ptr %7, align 4, !tbaa !3
  %13 = icmp sge i32 %12, 0
  br i1 %13, label %14, label %27

14:                                               ; preds = %11
  %15 = load ptr, ptr %5, align 8, !tbaa !14
  %16 = load i32, ptr %7, align 4, !tbaa !3
  %17 = sext i32 %16 to i64
  %18 = getelementptr inbounds i32, ptr %15, i64 %17
  %19 = load i32, ptr %18, align 4, !tbaa !3
  %20 = load ptr, ptr %4, align 8, !tbaa !14
  %21 = load i32, ptr %7, align 4, !tbaa !3
  %22 = sext i32 %21 to i64
  %23 = getelementptr inbounds i32, ptr %20, i64 %22
  store i32 %19, ptr %23, align 4, !tbaa !3
  br label %24

24:                                               ; preds = %14
  %25 = load i32, ptr %7, align 4, !tbaa !3
  %26 = add nsw i32 %25, -1
  store i32 %26, ptr %7, align 4, !tbaa !3
  br label %11, !llvm.loop !27

27:                                               ; preds = %11
  call void @llvm.lifetime.end.p0(i64 4, ptr %7) #9
  ret void
}

; Function Attrs: inlinehint nounwind uwtable
define internal ptr @Lpk_FunTruth(ptr noundef %0, i32 noundef %1) #3 {
  %3 = alloca ptr, align 8
  %4 = alloca i32, align 4
  store ptr %0, ptr %3, align 8, !tbaa !7
  store i32 %1, ptr %4, align 4, !tbaa !3
  %5 = load ptr, ptr %3, align 8, !tbaa !7
  %6 = getelementptr inbounds nuw %struct.Lpk_Fun_t_, ptr %5, i32 0, i32 7
  %7 = getelementptr inbounds [0 x i32], ptr %6, i64 0, i64 0
  %8 = load ptr, ptr %3, align 8, !tbaa !7
  %9 = getelementptr inbounds nuw %struct.Lpk_Fun_t_, ptr %8, i32 0, i32 1
  %10 = load i32, ptr %9, align 8
  %11 = lshr i32 %10, 7
  %12 = and i32 %11, 31
  %13 = call i32 @Kit_TruthWordNum(i32 noundef %12)
  %14 = load i32, ptr %4, align 4, !tbaa !3
  %15 = mul nsw i32 %13, %14
  %16 = sext i32 %15 to i64
  %17 = getelementptr inbounds i32, ptr %7, i64 %16
  ret ptr %17
}

; Function Attrs: nounwind uwtable
define ptr @Lpk_FunAlloc(i32 noundef %0) #0 {
  %2 = alloca i32, align 4
  %3 = alloca ptr, align 8
  store i32 %0, ptr %2, align 4, !tbaa !3
  call void @llvm.lifetime.start.p0(i64 8, ptr %3) #9
  %4 = load i32, ptr %2, align 4, !tbaa !3
  %5 = call i32 @Kit_TruthWordNum(i32 noundef %4)
  %6 = sext i32 %5 to i64
  %7 = mul i64 4, %6
  %8 = mul i64 %7, 3
  %9 = add i64 232, %8
  %10 = mul i64 1, %9
  %11 = call noalias ptr @malloc(i64 noundef %10) #10
  store ptr %11, ptr %3, align 8, !tbaa !7
  %12 = load ptr, ptr %3, align 8, !tbaa !7
  call void @llvm.memset.p0.i64(ptr align 8 %12, i8 0, i64 232, i1 false)
  %13 = load ptr, ptr %3, align 8, !tbaa !7
  call void @llvm.lifetime.end.p0(i64 8, ptr %3) #9
  ret ptr %13
}

; Function Attrs: inlinehint nounwind uwtable
define internal i32 @Vec_PtrSize(ptr noundef %0) #3 {
  %2 = alloca ptr, align 8
  store ptr %0, ptr %2, align 8, !tbaa !12
  %3 = load ptr, ptr %2, align 8, !tbaa !12
  %4 = getelementptr inbounds nuw %struct.Vec_Ptr_t_, ptr %3, i32 0, i32 1
  %5 = load i32, ptr %4, align 4, !tbaa !25
  ret i32 %5
}

; Function Attrs: nounwind uwtable
define ptr @Lpk_FunCreate(ptr noundef %0, ptr noundef %1, ptr noundef %2, i32 noundef %3, i32 noundef %4, i32 noundef %5) #0 {
  %7 = alloca ptr, align 8
  %8 = alloca ptr, align 8
  %9 = alloca ptr, align 8
  %10 = alloca i32, align 4
  %11 = alloca i32, align 4
  %12 = alloca i32, align 4
  %13 = alloca ptr, align 8
  %14 = alloca ptr, align 8
  %15 = alloca i32, align 4
  store ptr %0, ptr %7, align 8, !tbaa !10
  store ptr %1, ptr %8, align 8, !tbaa !12
  store ptr %2, ptr %9, align 8, !tbaa !14
  store i32 %3, ptr %10, align 4, !tbaa !3
  store i32 %4, ptr %11, align 4, !tbaa !3
  store i32 %5, ptr %12, align 4, !tbaa !3
  call void @llvm.lifetime.start.p0(i64 8, ptr %13) #9
  call void @llvm.lifetime.start.p0(i64 8, ptr %14) #9
  call void @llvm.lifetime.start.p0(i64 4, ptr %15) #9
  %16 = load ptr, ptr %8, align 8, !tbaa !12
  %17 = call i32 @Vec_PtrSize(ptr noundef %16)
  %18 = call ptr @Lpk_FunAlloc(i32 noundef %17)
  store ptr %18, ptr %13, align 8, !tbaa !7
  %19 = load ptr, ptr %8, align 8, !tbaa !12
  %20 = call i32 @Vec_PtrSize(ptr noundef %19)
  %21 = load ptr, ptr %13, align 8, !tbaa !7
  %22 = getelementptr inbounds nuw %struct.Lpk_Fun_t_, ptr %21, i32 0, i32 1
  %23 = load i32, ptr %22, align 8
  %24 = and i32 %20, 127
  %25 = and i32 %23, -128
  %26 = or i32 %25, %24
  store i32 %26, ptr %22, align 8
  %27 = load ptr, ptr %8, align 8, !tbaa !12
  %28 = load ptr, ptr %13, align 8, !tbaa !7
  %29 = getelementptr inbounds nuw %struct.Lpk_Fun_t_, ptr %28, i32 0, i32 0
  store ptr %27, ptr %29, align 8, !tbaa !16
  %30 = load ptr, ptr %8, align 8, !tbaa !12
  %31 = call i32 @Vec_PtrSize(ptr noundef %30)
  %32 = load ptr, ptr %13, align 8, !tbaa !7
  %33 = getelementptr inbounds nuw %struct.Lpk_Fun_t_, ptr %32, i32 0, i32 1
  %34 = load i32, ptr %33, align 8
  %35 = and i32 %31, 31
  %36 = shl i32 %35, 7
  %37 = and i32 %34, -3969
  %38 = or i32 %37, %36
  store i32 %38, ptr %33, align 8
  %39 = load i32, ptr %10, align 4, !tbaa !3
  %40 = load ptr, ptr %13, align 8, !tbaa !7
  %41 = getelementptr inbounds nuw %struct.Lpk_Fun_t_, ptr %40, i32 0, i32 1
  %42 = load i32, ptr %41, align 8
  %43 = and i32 %39, 15
  %44 = shl i32 %43, 12
  %45 = and i32 %42, -61441
  %46 = or i32 %45, %44
  store i32 %46, ptr %41, align 8
  %47 = load i32, ptr %11, align 4, !tbaa !3
  %48 = load ptr, ptr %13, align 8, !tbaa !7
  %49 = getelementptr inbounds nuw %struct.Lpk_Fun_t_, ptr %48, i32 0, i32 1
  %50 = load i32, ptr %49, align 8
  %51 = and i32 %47, 16383
  %52 = shl i32 %51, 16
  %53 = and i32 %50, -1073676289
  %54 = or i32 %53, %52
  store i32 %54, ptr %49, align 8
  %55 = load i32, ptr %12, align 4, !tbaa !3
  %56 = load ptr, ptr %13, align 8, !tbaa !7
  %57 = getelementptr inbounds nuw %struct.Lpk_Fun_t_, ptr %56, i32 0, i32 4
  store i32 %55, ptr %57, align 8, !tbaa !18
  %58 = load ptr, ptr %9, align 8, !tbaa !14
  %59 = load ptr, ptr %13, align 8, !tbaa !7
  %60 = getelementptr inbounds nuw %struct.Lpk_Fun_t_, ptr %59, i32 0, i32 1
  %61 = load i32, ptr %60, align 8
  %62 = lshr i32 %61, 7
  %63 = and i32 %62, 31
  %64 = call i32 @Kit_TruthSupport(ptr noundef %58, i32 noundef %63)
  %65 = load ptr, ptr %13, align 8, !tbaa !7
  %66 = getelementptr inbounds nuw %struct.Lpk_Fun_t_, ptr %65, i32 0, i32 2
  store i32 %64, ptr %66, align 4, !tbaa !19
  %67 = load ptr, ptr %13, align 8, !tbaa !7
  %68 = call ptr @Lpk_FunTruth(ptr noundef %67, i32 noundef 0)
  %69 = load ptr, ptr %9, align 8, !tbaa !14
  %70 = load ptr, ptr %13, align 8, !tbaa !7
  %71 = getelementptr inbounds nuw %struct.Lpk_Fun_t_, ptr %70, i32 0, i32 1
  %72 = load i32, ptr %71, align 8
  %73 = lshr i32 %72, 7
  %74 = and i32 %73, 31
  call void @Kit_TruthCopy(ptr noundef %68, ptr noundef %69, i32 noundef %74)
  store i32 0, ptr %15, align 4, !tbaa !3
  br label %75

75:                                               ; preds = %103, %6
  %76 = load i32, ptr %15, align 4, !tbaa !3
  %77 = load ptr, ptr %8, align 8, !tbaa !12
  %78 = call i32 @Vec_PtrSize(ptr noundef %77)
  %79 = icmp slt i32 %76, %78
  br i1 %79, label %80, label %84

80:                                               ; preds = %75
  %81 = load ptr, ptr %8, align 8, !tbaa !12
  %82 = load i32, ptr %15, align 4, !tbaa !3
  %83 = call ptr @Vec_PtrEntry(ptr noundef %81, i32 noundef %82)
  store ptr %83, ptr %14, align 8, !tbaa !20
  br label %84

84:                                               ; preds = %80, %75
  %85 = phi i1 [ false, %75 ], [ true, %80 ]
  br i1 %85, label %86, label %106

86:                                               ; preds = %84
  %87 = load i32, ptr %15, align 4, !tbaa !3
  %88 = trunc i32 %87 to i8
  %89 = load ptr, ptr %13, align 8, !tbaa !7
  %90 = getelementptr inbounds nuw %struct.Lpk_Fun_t_, ptr %89, i32 0, i32 6
  %91 = load i32, ptr %15, align 4, !tbaa !3
  %92 = sext i32 %91 to i64
  %93 = getelementptr inbounds [16 x i8], ptr %90, i64 0, i64 %92
  store i8 %88, ptr %93, align 1, !tbaa !22
  %94 = load ptr, ptr %14, align 8, !tbaa !20
  %95 = getelementptr inbounds nuw %struct.Abc_Obj_t_, ptr %94, i32 0, i32 3
  %96 = load i32, ptr %95, align 4
  %97 = lshr i32 %96, 12
  %98 = load ptr, ptr %13, align 8, !tbaa !7
  %99 = getelementptr inbounds nuw %struct.Lpk_Fun_t_, ptr %98, i32 0, i32 5
  %100 = load i32, ptr %15, align 4, !tbaa !3
  %101 = sext i32 %100 to i64
  %102 = getelementptr inbounds [16 x i32], ptr %99, i64 0, i64 %101
  store i32 %97, ptr %102, align 4, !tbaa !3
  br label %103

103:                                              ; preds = %86
  %104 = load i32, ptr %15, align 4, !tbaa !3
  %105 = add nsw i32 %104, 1
  store i32 %105, ptr %15, align 4, !tbaa !3
  br label %75, !llvm.loop !23

106:                                              ; preds = %84
  %107 = load ptr, ptr %13, align 8, !tbaa !7
  %108 = getelementptr inbounds nuw %struct.Lpk_Fun_t_, ptr %107, i32 0, i32 0
  %109 = load ptr, ptr %108, align 8, !tbaa !16
  %110 = load ptr, ptr %13, align 8, !tbaa !7
  call void @Vec_PtrPush(ptr noundef %109, ptr noundef %110)
  %111 = load ptr, ptr %13, align 8, !tbaa !7
  call void @llvm.lifetime.end.p0(i64 4, ptr %15) #9
  call void @llvm.lifetime.end.p0(i64 8, ptr %14) #9
  call void @llvm.lifetime.end.p0(i64 8, ptr %13) #9
  ret ptr %111
}