; Function Attrs: nounwind uwtable
define noundef ptr @Lpk_FunCreate(ptr noundef readnone captures(none) %0, ptr noundef %1, ptr noundef %2, i32 noundef %3, i32 noundef %4, i32 noundef %5) local_unnamed_addr #5 {
Kit_TruthCopy.exit.preheader:
  %6 = getelementptr i8, ptr %1, i64 4
  %.val = load i32, ptr %6, align 4, !tbaa !3
  %7 = icmp slt i32 %.val, 6
  %8 = add nsw i32 %.val, -5
  %9 = shl nuw i32 1, %8
  %10 = select i1 %7, i32 1, i32 %9
  %11 = sext i32 %10 to i64
  %12 = mul nsw i64 %11, 12
  %13 = add nsw i64 %12, 232
  %14 = tail call noalias noundef ptr @malloc(i64 noundef %13) #12
  %15 = getelementptr inbounds nuw i8, ptr %14, i64 16
  tail call void @llvm.memset.p0.i64(ptr noundef nonnull align 8 dereferenceable(232) %15, i8 0, i64 216, i1 false)
  %16 = getelementptr inbounds nuw i8, ptr %14, i64 8
  %17 = and i32 %.val, 127
  store ptr %1, ptr %14, align 8, !tbaa !9
  %18 = shl i32 %.val, 7
  %19 = and i32 %18, 3968
  %20 = shl i32 %3, 12
  %21 = and i32 %20, 61440
  %22 = shl i32 %4, 16
  %23 = and i32 %22, 1073676288
  %24 = or disjoint i32 %23, %21
  %25 = or disjoint i32 %24, %19
  %26 = or disjoint i32 %25, %17
  store i32 %26, ptr %16, align 8
  %27 = getelementptr inbounds nuw i8, ptr %14, i64 144
  store i32 %5, ptr %27, align 8, !tbaa !12
  %28 = and i32 %.val, 31
  %29 = tail call i32 @Kit_TruthSupport(ptr noundef %2, i32 noundef %28) #13
  %30 = getelementptr inbounds nuw i8, ptr %14, i64 12
  store i32 %29, ptr %30, align 4, !tbaa !13
  %31 = and i32 %.val, 31
  %32 = icmp samesign ult i32 %31, 6
  %33 = add nsw i32 %31, -5
  %34 = shl nuw nsw i32 1, %33
  %spec.select.i = select i1 %32, i32 1, i32 %34
  %35 = zext nneg i32 %spec.select.i to i64
  %scevgep = getelementptr i8, ptr %14, i64 228
  %36 = shl nuw nsw i64 %35, 2
  tail call void @llvm.memcpy.p0.p0.i64(ptr noundef nonnull align 4 dereferenceable(1) %scevgep, ptr noundef nonnull align 4 dereferenceable(1) %2, i64 %36, i1 false), !tbaa !14
  %.val34 = load i32, ptr %6, align 4, !tbaa !3
  %37 = icmp sgt i32 %.val34, 0
  br i1 %37, label %.lr.ph, label %.critedge

.lr.ph:                                           ; preds = %Kit_TruthCopy.exit.preheader
  %38 = getelementptr i8, ptr %1, i64 8
  %.val35 = load ptr, ptr %38, align 8, !tbaa !15
  %39 = getelementptr inbounds nuw i8, ptr %14, i64 212
  %40 = getelementptr inbounds nuw i8, ptr %14, i64 148
  %wide.trip.count = zext nneg i32 %.val34 to i64
  br label %Kit_TruthCopy.exit

Kit_TruthCopy.exit:                               ; preds = %.lr.ph, %Kit_TruthCopy.exit
  %indvars.iv = phi i64 [ 0, %.lr.ph ], [ %indvars.iv.next, %Kit_TruthCopy.exit ]
  %41 = getelementptr inbounds nuw ptr, ptr %.val35, i64 %indvars.iv
  %42 = load ptr, ptr %41, align 8, !tbaa !16
  %43 = trunc i64 %indvars.iv to i8
  %44 = getelementptr inbounds nuw [16 x i8], ptr %39, i64 0, i64 %indvars.iv
  store i8 %43, ptr %44, align 1, !tbaa !17
  %45 = getelementptr inbounds nuw i8, ptr %42, i64 20
  %46 = load i32, ptr %45, align 4
  %47 = lshr i32 %46, 12
  %48 = getelementptr inbounds nuw [16 x i32], ptr %40, i64 0, i64 %indvars.iv
  store i32 %47, ptr %48, align 4, !tbaa !14
  %indvars.iv.next = add nuw nsw i64 %indvars.iv, 1
  %exitcond.not = icmp eq i64 %indvars.iv.next, %wide.trip.count
  br i1 %exitcond.not, label %.critedge, label %Kit_TruthCopy.exit, !llvm.loop !18

.critedge:                                        ; preds = %Kit_TruthCopy.exit, %Kit_TruthCopy.exit.preheader
  %49 = load i32, ptr %1, align 8, !tbaa !20
  %50 = icmp eq i32 %.val34, %49
  br i1 %50, label %51, label %.Vec_PtrGrow.exit11_crit_edge.i

.Vec_PtrGrow.exit11_crit_edge.i:                  ; preds = %.critedge
  %.phi.trans.insert.i = getelementptr inbounds nuw i8, ptr %1, i64 8
  %.pre.i = load ptr, ptr %.phi.trans.insert.i, align 8, !tbaa !15
  br label %Vec_PtrPush.exit

51:                                               ; preds = %.critedge
  %52 = icmp slt i32 %.val34, 16
  br i1 %52, label %53, label %61

53:                                               ; preds = %51
  %54 = getelementptr inbounds nuw i8, ptr %1, i64 8
  %55 = load ptr, ptr %54, align 8, !tbaa !15
  %.not9.i.i = icmp eq ptr %55, null
  br i1 %.not9.i.i, label %58, label %56

56:                                               ; preds = %53
  %57 = tail call dereferenceable_or_null(128) ptr @realloc(ptr noundef nonnull %55, i64 noundef 128) #14
  br label %Vec_PtrGrow.exit.i

58:                                               ; preds = %53
  %59 = tail call noalias dereferenceable_or_null(128) ptr @malloc(i64 noundef 128) #12
  br label %Vec_PtrGrow.exit.i

Vec_PtrGrow.exit.i:                               ; preds = %58, %56
  %60 = phi ptr [ %57, %56 ], [ %59, %58 ]
  store ptr %60, ptr %54, align 8, !tbaa !15
  store i32 16, ptr %1, align 8, !tbaa !20
  br label %Vec_PtrPush.exit

61:                                               ; preds = %51
  %62 = shl nuw nsw i32 %.val34, 1
  %63 = getelementptr inbounds nuw i8, ptr %1, i64 8
  %64 = load ptr, ptr %63, align 8, !tbaa !15
  %.not9.i10.i = icmp eq ptr %64, null
  %65 = zext nneg i32 %62 to i64
  %66 = shl nuw nsw i64 %65, 3
  br i1 %.not9.i10.i, label %69, label %67

67:                                               ; preds = %61
  %68 = tail call ptr @realloc(ptr noundef nonnull %64, i64 noundef %66) #14
  br label %71

69:                                               ; preds = %61
  %70 = tail call noalias ptr @malloc(i64 noundef %66) #12
  br label %71

71:                                               ; preds = %69, %67
  %72 = phi ptr [ %68, %67 ], [ %70, %69 ]
  store ptr %72, ptr %63, align 8, !tbaa !15
  store i32 %62, ptr %1, align 8, !tbaa !20
  br label %Vec_PtrPush.exit

Vec_PtrPush.exit:                                 ; preds = %.Vec_PtrGrow.exit11_crit_edge.i, %Vec_PtrGrow.exit.i, %71
  %73 = phi ptr [ %.pre.i, %.Vec_PtrGrow.exit11_crit_edge.i ], [ %72, %71 ], [ %60, %Vec_PtrGrow.exit.i ]
  %74 = load i32, ptr %6, align 4, !tbaa !3
  %75 = add nsw i32 %74, 1
  store i32 %75, ptr %6, align 4, !tbaa !3
  %76 = sext i32 %74 to i64
  %77 = getelementptr inbounds ptr, ptr %73, i64 %76
  store ptr %14, ptr %77, align 8, !tbaa !16
  ret ptr %14
}